target datalayout = "e-m:e-p270:32:32-p271:32:32-p272:64:64-i64:64-i128:128-f80:128-n8:16:32:64-S128"
target triple = "x86_64-pc-linux-gnu"

; Function Attrs: nounwind uwtable
define i32 @Abc_TtCountOnesInCofsQuick(ptr noundef %0, i32 noundef %1, ptr noundef %2) #0 {
  %4 = alloca i32, align 4
  %5 = alloca ptr, align 8
  %6 = alloca i32, align 4
  %7 = alloca ptr, align 8
  store ptr %0, ptr %5, align 8, !tbaa !14
  store i32 %1, ptr %6, align 4, !tbaa !3
  store ptr %2, ptr %7, align 8, !tbaa !17
  %8 = load i32, ptr %6, align 4, !tbaa !3
  %9 = icmp eq i32 %8, 0
  br i1 %9, label %10, label %16

10:                                               ; preds = %3
  %11 = load ptr, ptr %5, align 8, !tbaa !14
  %12 = getelementptr inbounds i64, ptr %11, i64 0
  %13 = load i64, ptr %12, align 8, !tbaa !9
  %14 = and i64 %13, 1
  %15 = trunc i64 %14 to i32
  store i32 %15, ptr %4, align 4
  br label %25

16:                                               ; preds = %3
  %17 = load ptr, ptr %7, align 8, !tbaa !17
  %18 = load i32, ptr %6, align 4, !tbaa !3
  %19 = sext i32 %18 to i64
  %20 = mul i64 4, %19
  call void @llvm.memset.p0.i64(ptr align 4 %17, i8 0, i64 %20, i1 false)
  %21 = load ptr, ptr %5, align 8, !tbaa !14
  %22 = load i32, ptr %6, align 4, !tbaa !3
  %23 = load ptr, ptr %7, align 8, !tbaa !17
  %24 = call i32 @Abc_TtCountOnesInCofsQuick_rec(ptr noundef %21, i32 noundef %22, ptr noundef %23)
  store i32 %24, ptr %4, align 4
  br label %25

25:                                               ; preds = %16, %10
  %26 = load i32, ptr %4, align 4
  ret i32 %26
}