; Function Attrs: nofree nosync nounwind memory(argmem: readwrite) uwtable
define i32 @Abc_TtCountOnesInCofsQuick(ptr noundef %0, i32 noundef %1, ptr noundef %2) local_unnamed_addr #3 {
  %4 = icmp eq i32 %1, 0
  br i1 %4, label %5, label %9

5:                                                ; preds = %3
  %6 = load i64, ptr %0, align 8, !tbaa !9
  %7 = trunc i64 %6 to i32
  %8 = and i32 %7, 1
  br label %13

9:                                                ; preds = %3
  %10 = sext i32 %1 to i64
  %11 = shl nsw i64 %10, 2
  tail call void @llvm.memset.p0.i64(ptr align 4 %2, i8 0, i64 %11, i1 false)
  %12 = tail call i32 @Abc_TtCountOnesInCofsQuick_rec(ptr noundef %0, i32 noundef %1, ptr noundef %2)
  br label %13

13:                                               ; preds = %9, %5
  %.0 = phi i32 [ %8, %5 ], [ %12, %9 ]
  ret i32 %.0
}